target datalayout = "e-m:e-p270:32:32-p271:32:32-p272:64:64-i64:64-i128:128-f80:128-n8:16:32:64-S128"
target triple = "x86_64-pc-linux-gnu"

%struct.pmix_list_t = type { %struct.pmix_object_t, %struct.pmix_list_item_t, i64 }
%struct.pmix_object_t = type { %union.pthread_mutex_t, ptr, i32, %struct.pmix_tma }
%union.pthread_mutex_t = type { %struct.__pthread_mutex_s }
%struct.__pthread_mutex_s = type { i32, i32, i32, i32, i32, i16, i16, %struct.__pthread_internal_list }
%struct.__pthread_internal_list = type { ptr, ptr }
%struct.pmix_tma = type { ptr, ptr, ptr, ptr, ptr, ptr, ptr, ptr }
%struct.pmix_list_item_t = type { %struct.pmix_object_t, ptr, ptr, i32 }
%struct.prte_state_t = type { %struct.pmix_list_item_t, i32, i32, ptr }

@prte_job_states = external global %struct.pmix_list_t, align 8
@.str.1 = private unnamed_addr constant [5 x i8] c"NULL\00", align 1
@.str.7 = private unnamed_addr constant [24 x i8] c"PRTE_JOB_STATE_MACHINE:\00", align 1
@.str.8 = private unnamed_addr constant [22 x i8] c"\09State: %s cbfunc: %s\00", align 1
@.str.9 = private unnamed_addr constant [8 x i8] c"DEFINED\00", align 1

; Function Attrs: inlinehint nounwind uwtable
define internal ptr @pmix_list_get_end(ptr noundef %0) #2 {
  %2 = alloca ptr, align 8
  store ptr %0, ptr %2, align 8, !tbaa !48
  %3 = load ptr, ptr %2, align 8, !tbaa !48
  %4 = getelementptr inbounds nuw %struct.pmix_list_t, ptr %3, i32 0, i32 1
  ret ptr %4
}

; Function Attrs: inlinehint nounwind uwtable
define internal ptr @pmix_list_get_first(ptr noundef %0) #2 {
  %2 = alloca ptr, align 8
  %3 = alloca ptr, align 8
  store ptr %0, ptr %2, align 8, !tbaa !48
  call void @llvm.lifetime.start.p0(i64 8, ptr %3) #13
  %4 = load ptr, ptr %2, align 8, !tbaa !48
  %5 = getelementptr inbounds nuw %struct.pmix_list_t, ptr %4, i32 0, i32 1
  %6 = getelementptr inbounds nuw %struct.pmix_list_item_t, ptr %5, i32 0, i32 1
  %7 = load ptr, ptr %6, align 8, !tbaa !50
  store ptr %7, ptr %3, align 8, !tbaa !9
  %8 = load ptr, ptr %3, align 8, !tbaa !9
  call void @llvm.lifetime.end.p0(i64 8, ptr %3) #13
  ret ptr %8
}

; Function Attrs: nounwind uwtable
define void @prte_state_base_print_job_state_machine() #0 {
  %1 = alloca ptr, align 8
  %2 = alloca ptr, align 8
  call void @llvm.lifetime.start.p0(i64 8, ptr %1) #13
  call void @llvm.lifetime.start.p0(i64 8, ptr %2) #13
  call void (i32, ptr, ...) @pmix_output(i32 noundef 0, ptr noundef @.str.7)
  %3 = call ptr @pmix_list_get_first(ptr noundef @prte_job_states)
  store ptr %3, ptr %1, align 8, !tbaa !9
  br label %4

4:                                                ; preds = %27, %0
  %5 = load ptr, ptr %1, align 8, !tbaa !9
  %6 = call ptr @pmix_list_get_end(ptr noundef @prte_job_states)
  %7 = icmp ne ptr %5, %6
  br i1 %7, label %8, label %29

8:                                                ; preds = %4
  %9 = load ptr, ptr %1, align 8, !tbaa !9
  store ptr %9, ptr %2, align 8, !tbaa !3
  %10 = load ptr, ptr %2, align 8, !tbaa !3
  %11 = getelementptr inbounds nuw %struct.prte_state_t, ptr %10, i32 0, i32 1
  %12 = load i32, ptr %11, align 8, !tbaa !11
  %13 = call ptr @prte_job_state_to_str(i32 noundef %12)
  %14 = load ptr, ptr %2, align 8, !tbaa !3
  %15 = getelementptr inbounds nuw %struct.prte_state_t, ptr %14, i32 0, i32 3
  %16 = load ptr, ptr %15, align 8, !tbaa !32
  %17 = icmp eq ptr null, %16
  %18 = select i1 %17, ptr @.str.1, ptr @.str.9
  call void (i32, ptr, ...) @pmix_output(i32 noundef 0, ptr noundef @.str.8, ptr noundef %13, ptr noundef %18)
  br label %19

19:                                               ; preds = %8
  %20 = load ptr, ptr %1, align 8, !tbaa !9
  %21 = icmp ne ptr %20, null
  br i1 %21, label %22, label %26

22:                                               ; preds = %19
  %23 = load ptr, ptr %1, align 8, !tbaa !9
  %24 = getelementptr inbounds nuw %struct.pmix_list_item_t, ptr %23, i32 0, i32 1
  %25 = load ptr, ptr %24, align 8, !tbaa !45
  br label %27

26:                                               ; preds = %19
  br label %27

27:                                               ; preds = %26, %22
  %28 = phi ptr [ %25, %22 ], [ null, %26 ]
  store ptr %28, ptr %1, align 8, !tbaa !9
  br label %4, !llvm.loop !77

29:                                               ; preds = %4
  call void @llvm.lifetime.end.p0(i64 8, ptr %2) #13
  call void @llvm.lifetime.end.p0(i64 8, ptr %1) #13
  ret void
}