; Function Attrs: nounwind uwtable
define void @prte_state_base_print_job_state_machine() local_unnamed_addr #0 {
  tail call void (i32, ptr, ...) @pmix_output(i32 noundef 0, ptr noundef nonnull @.str.7) #14
  %.07 = load ptr, ptr getelementptr inbounds nuw (i8, ptr @prte_job_states, i64 240), align 8, !tbaa !51
  %.not8 = icmp eq ptr %.07, getelementptr inbounds nuw (i8, ptr @prte_job_states, i64 120)
  br i1 %.not8, label %._crit_edge, label %.lr.ph

.lr.ph:                                           ; preds = %0, %.lr.ph
  %.09 = phi ptr [ %.0, %.lr.ph ], [ %.07, %0 ]
  %1 = getelementptr inbounds nuw i8, ptr %.09, i64 144
  %2 = load i32, ptr %1, align 8, !tbaa !15
  %3 = tail call ptr @prte_job_state_to_str(i32 noundef %2) #14
  %4 = getelementptr inbounds nuw i8, ptr %.09, i64 152
  %5 = load ptr, ptr %4, align 8, !tbaa !28
  %6 = icmp eq ptr %5, null
  %7 = select i1 %6, ptr @.str.1, ptr @.str.9
  tail call void (i32, ptr, ...) @pmix_output(i32 noundef 0, ptr noundef nonnull @.str.8, ptr noundef %3, ptr noundef nonnull %7) #14
  %8 = getelementptr inbounds nuw i8, ptr %.09, i64 120
  %.0 = load ptr, ptr %8, align 8, !tbaa !51
  %.not = icmp eq ptr %.0, getelementptr inbounds nuw (i8, ptr @prte_job_states, i64 120)
  br i1 %.not, label %._crit_edge, label %.lr.ph, !llvm.loop !61

._crit_edge:                                      ; preds = %.lr.ph, %0
  ret void
}